; Function Attrs: mustprogress nofree norecurse nosync nounwind willreturn memory(read, inaccessiblemem: none) uwtable
define dso_local { ptr, i64 } @_ZNK4llvm10StructType7getNameEv(ptr noundef nonnull readonly align 8 captures(none) dereferenceable(32) %0) local_unnamed_addr #7 align 2 {
  %2 = getelementptr inbounds nuw i8, ptr %0, i64 24
  %3 = load ptr, ptr %2, align 8
  %.not = icmp eq ptr %3, null
  br i1 %.not, label %7, label %4

4:                                                ; preds = %1
  %5 = getelementptr inbounds nuw i8, ptr %3, i64 16
  %6 = load i64, ptr %3, align 8
  br label %7

7:                                                ; preds = %1, %4
  %.sroa.0.0 = phi ptr [ %5, %4 ], [ null, %1 ]
  %.sroa.4.0 = phi i64 [ %6, %4 ], [ 0, %1 ]
  %.fca.0.insert = insertvalue { ptr, i64 } poison, ptr %.sroa.0.0, 0
  %.fca.1.insert = insertvalue { ptr, i64 } %.fca.0.insert, i64 %.sroa.4.0, 1
  ret { ptr, i64 } %.fca.1.insert
}